; Function Attrs: nounwind uwtable
define i32 @wc_Tls13_HKDF_Expand_Label(ptr noundef %0, i32 noundef %1, ptr noundef %2, i32 noundef %3, ptr noundef readonly captures(none) %4, i32 noundef %5, ptr noundef readonly captures(none) %6, i32 noundef %7, ptr noundef readonly captures(none) %8, i32 noundef %9, i32 noundef %10) local_unnamed_addr #0 {
  %12 = alloca [111 x i8], align 16
  call void @llvm.lifetime.start.p0(i64 111, ptr nonnull %12) #6
  %13 = add i32 %7, %5
  %14 = add i32 %13, 4
  %15 = add i32 %14, %9
  %16 = icmp ugt i32 %15, 111
  br i1 %16, label %wc_Tls13_HKDF_Expand_Label_ex.exit, label %17

17:                                               ; preds = %11
  %18 = lshr i32 %1, 8
  %19 = trunc i32 %18 to i8
  store i8 %19, ptr %12, align 16, !tbaa !11
  %20 = trunc i32 %1 to i8
  %21 = getelementptr inbounds nuw i8, ptr %12, i64 1
  store i8 %20, ptr %21, align 1, !tbaa !11
  %22 = trunc i32 %13 to i8
  %23 = getelementptr inbounds nuw i8, ptr %12, i64 2
  store i8 %22, ptr %23, align 2, !tbaa !11
  %.not.i = icmp eq i32 %5, 0
  br i1 %.not.i, label %28, label %24

24:                                               ; preds = %17
  %25 = getelementptr inbounds nuw i8, ptr %12, i64 3
  %26 = zext i32 %5 to i64
  call void @llvm.memcpy.p0.p0.i64(ptr nonnull align 1 %25, ptr readonly align 1 %4, i64 %26, i1 false)
  %27 = add i32 %5, 3
  br label %28

28:                                               ; preds = %24, %17
  %.0.i = phi i32 [ %27, %24 ], [ 3, %17 ]
  %.not45.i = icmp eq i32 %7, 0
  br i1 %.not45.i, label %34, label %29

29:                                               ; preds = %28
  %30 = zext i32 %.0.i to i64
  %31 = getelementptr inbounds nuw [111 x i8], ptr %12, i64 0, i64 %30
  %32 = zext i32 %7 to i64
  call void @llvm.memcpy.p0.p0.i64(ptr nonnull align 1 %31, ptr readonly align 1 %6, i64 %32, i1 false)
  %33 = add i32 %.0.i, %7
  br label %34

34:                                               ; preds = %29, %28
  %.1.i = phi i32 [ %33, %29 ], [ %.0.i, %28 ]
  %35 = trunc i32 %9 to i8
  %36 = add i32 %.1.i, 1
  %37 = zext i32 %.1.i to i64
  %38 = getelementptr inbounds nuw [111 x i8], ptr %12, i64 0, i64 %37
  store i8 %35, ptr %38, align 1, !tbaa !11
  %.not46.i = icmp eq i32 %9, 0
  br i1 %.not46.i, label %.preheader23.i.i, label %39

39:                                               ; preds = %34
  %40 = zext i32 %36 to i64
  %41 = getelementptr inbounds nuw [111 x i8], ptr %12, i64 0, i64 %40
  %42 = zext i32 %9 to i64
  call void @llvm.memcpy.p0.p0.i64(ptr nonnull align 1 %41, ptr readonly align 1 %8, i64 %42, i1 false)
  %43 = add i32 %36, %9
  br label %.preheader23.i.i

.preheader23.i.i:                                 ; preds = %39, %34
  %.2.i = phi i32 [ %43, %39 ], [ %36, %34 ]
  %44 = call i32 @wc_HKDF_Expand_ex(i32 noundef %10, ptr noundef %2, i32 noundef %3, ptr noundef nonnull %12, i32 noundef %.2.i, ptr noundef %0, i32 noundef %1, ptr noundef null, i32 noundef -2) #6
  %45 = icmp ugt i32 %.2.i, 7
  br i1 %45, label %.lr.ph29.i.i, label %.preheader.i.i

.preheader.i.i:                                   ; preds = %.lr.ph29.i.i, %.preheader23.i.i
  %.018.lcssa.i.i = phi i32 [ %.2.i, %.preheader23.i.i ], [ %47, %.lr.ph29.i.i ]
  %.015.lcssa.i.i = phi ptr [ %12, %.preheader23.i.i ], [ %46, %.lr.ph29.i.i ]
  %.not2232.i.i = icmp eq i32 %.018.lcssa.i.i, 0
  br i1 %.not2232.i.i, label %wc_Tls13_HKDF_Expand_Label_ex.exit, label %.lr.ph35.i.i

.lr.ph29.i.i:                                     ; preds = %.preheader23.i.i, %.lr.ph29.i.i
  %.01528.i.i = phi ptr [ %46, %.lr.ph29.i.i ], [ %12, %.preheader23.i.i ]
  %.01827.i.i = phi i32 [ %47, %.lr.ph29.i.i ], [ %.2.i, %.preheader23.i.i ]
  %46 = getelementptr inbounds nuw i8, ptr %.01528.i.i, i64 8
  store volatile i64 0, ptr %.01528.i.i, align 8, !tbaa !5
  %47 = add i32 %.01827.i.i, -8
  %48 = icmp ugt i32 %47, 7
  br i1 %48, label %.lr.ph29.i.i, label %.preheader.i.i, !llvm.loop !9

.lr.ph35.i.i:                                     ; preds = %.preheader.i.i, %.lr.ph35.i.i
  %.11734.i.i = phi ptr [ %50, %.lr.ph35.i.i ], [ %.015.lcssa.i.i, %.preheader.i.i ]
  %.11933.i.i = phi i32 [ %49, %.lr.ph35.i.i ], [ %.018.lcssa.i.i, %.preheader.i.i ]
  %49 = add i32 %.11933.i.i, -1
  %50 = getelementptr inbounds nuw i8, ptr %.11734.i.i, i64 1
  store volatile i8 0, ptr %.11734.i.i, align 1, !tbaa !11
  %.not22.i.i = icmp eq i32 %49, 0
  br i1 %.not22.i.i, label %wc_Tls13_HKDF_Expand_Label_ex.exit, label %.lr.ph35.i.i, !llvm.loop !13

wc_Tls13_HKDF_Expand_Label_ex.exit:               ; preds = %.lr.ph35.i.i, %11, %.preheader.i.i
  %.041.i = phi i32 [ -132, %11 ], [ %44, %.preheader.i.i ], [ %44, %.lr.ph35.i.i ]
  call void @llvm.lifetime.end.p0(i64 111, ptr nonnull %12) #6
  ret i32 %.041.i
}